; Function Attrs: mustprogress uwtable
define internal void @_ZL15cmDisplayStatusPvPKc(ptr noundef %0, ptr noundef %1) #6 personality ptr @__gxx_personality_v0 {
  %3 = alloca %"class.std::__cxx11::basic_string", align 8
  %4 = alloca %"class.std::allocator", align 1
  call void @_ZNSaIcEC1Ev(ptr noundef nonnull align 1 dereferenceable(1) %4) #30
  %5 = invoke noundef ptr @_ZNSt7__cxx1112basic_stringIcSt11char_traitsIcESaIcEE13_M_local_dataEv(ptr noundef nonnull align 8 dereferenceable(32) %3)
          to label %.noexc unwind label %15

.noexc:                                           ; preds = %2
  invoke void @_ZNSt7__cxx1112basic_stringIcSt11char_traitsIcESaIcEE12_Alloc_hiderC1EPcRKS3_(ptr noundef nonnull align 8 dereferenceable(8) %3, ptr noundef %5, ptr noundef nonnull align 1 dereferenceable(1) %4)
          to label %.noexc6 unwind label %15

.noexc6:                                          ; preds = %.noexc
  %6 = icmp eq ptr %1, null
  br i1 %6, label %7, label %11

7:                                                ; preds = %.noexc6
  invoke void @_ZSt19__throw_logic_errorPKc(ptr noundef nonnull @.str.14) #35
          to label %8 unwind label %9

8:                                                ; preds = %7
  unreachable

9:                                                ; preds = %11, %7
  %10 = landingpad { ptr, i32 }
          cleanup
  call void @_ZNSaIcED2Ev(ptr noundef nonnull align 1 dereferenceable(1) %3) #30
  br label %.body

11:                                               ; preds = %.noexc6
  %12 = call noundef i64 @strlen(ptr noundef nonnull dereferenceable(1) %1) #30
  %13 = getelementptr inbounds i8, ptr %1, i64 %12
  invoke void @_ZNSt7__cxx1112basic_stringIcSt11char_traitsIcESaIcEE12_M_constructIPKcEEvT_S8_St20forward_iterator_tag(ptr noundef nonnull align 8 dereferenceable(32) %3, ptr noundef nonnull %1, ptr noundef nonnull %13)
          to label %_ZNSt7__cxx1112basic_stringIcSt11char_traitsIcESaIcEEC2IS3_EEPKcRKS3_.exit unwind label %9

_ZNSt7__cxx1112basic_stringIcSt11char_traitsIcESaIcEEC2IS3_EEPKcRKS3_.exit: ; preds = %11
  invoke void @_ZNK10cmMakefile13DisplayStatusERKNSt7__cxx1112basic_stringIcSt11char_traitsIcESaIcEEEf(ptr noundef nonnull align 8 dereferenceable(3520) %0, ptr noundef nonnull align 8 dereferenceable(32) %3, float noundef -1.000000e+00)
          to label %14 unwind label %17

14:                                               ; preds = %_ZNSt7__cxx1112basic_stringIcSt11char_traitsIcESaIcEEC2IS3_EEPKcRKS3_.exit
  call void @_ZNSt7__cxx1112basic_stringIcSt11char_traitsIcESaIcEED1Ev(ptr noundef nonnull align 8 dereferenceable(32) %3) #30
  call void @_ZNSaIcED1Ev(ptr noundef nonnull align 1 dereferenceable(1) %4) #30
  ret void

15:                                               ; preds = %.noexc, %2
  %16 = landingpad { ptr, i32 }
          cleanup
  br label %.body

17:                                               ; preds = %_ZNSt7__cxx1112basic_stringIcSt11char_traitsIcESaIcEEC2IS3_EEPKcRKS3_.exit
  %18 = landingpad { ptr, i32 }
          cleanup
  call void @_ZNSt7__cxx1112basic_stringIcSt11char_traitsIcESaIcEED1Ev(ptr noundef nonnull align 8 dereferenceable(32) %3) #30
  br label %.body

.body:                                            ; preds = %15, %9, %17
  %.pn = phi { ptr, i32 } [ %18, %17 ], [ %16, %15 ], [ %10, %9 ]
  call void @_ZNSaIcED1Ev(ptr noundef nonnull align 1 dereferenceable(1) %4) #30
  resume { ptr, i32 } %.pn
}